(dp0
S'a'
p1
(iname
name
p2
(dp3
S'var_name'
p4
g1
sbsS'c'
p5
(iname
name
p6
(dp7
g4
g5
sbsS'b'
p8
(iname
name
p9
(dp10
g4
g8
sbsS'func'
p11
(iname
name
p12
(dp13
g4
g11
sbsS'printf'
p14
(iname
name
p15
(dp16
g4
g14
sbsS'main'
p17
(iname
name
p18
(dp19
g4
g17
sbs.